; Function Attrs: mustprogress nounwind uwtable
define hidden noundef zeroext i1 @dbg_is_good_oop(ptr noundef %0) local_unnamed_addr #1 {
  %.not.i = icmp eq ptr %0, null
  br i1 %.not.i, label %dbg_is_safe.exit.thread, label %dbg_is_safe.exit

dbg_is_safe.exit:                                 ; preds = %1
  %2 = tail call noundef i64 @SafeFetchN_impl(ptr noundef nonnull %0, i64 noundef -1) #16
  %.not = icmp eq i64 %2, -1
  br i1 %.not, label %dbg_is_safe.exit.thread, label %3

3:                                                ; preds = %dbg_is_safe.exit
  %4 = load i8, ptr @UseCompressedClassPointers, align 1
  %5 = trunc i8 %4 to i1
  %6 = getelementptr inbounds i8, ptr %0, i64 8
  br i1 %5, label %7, label %17

7:                                                ; preds = %3
  %8 = load i32, ptr %6, align 8
  %9 = load ptr, ptr @_ZN23CompressedKlassPointers5_baseE, align 8
  %10 = load i32, ptr @_ZN23CompressedKlassPointers6_shiftE, align 4
  %11 = ptrtoint ptr %9 to i64
  %12 = zext i32 %8 to i64
  %13 = zext nneg i32 %10 to i64
  %14 = shl i64 %12, %13
  %15 = add i64 %14, %11
  %16 = inttoptr i64 %15 to ptr
  br label %_ZNK7oopDesc5klassEv.exit

17:                                               ; preds = %3
  %18 = load ptr, ptr %6, align 8
  br label %_ZNK7oopDesc5klassEv.exit

_ZNK7oopDesc5klassEv.exit:                        ; preds = %7, %17
  %.0.i = phi ptr [ %16, %7 ], [ %18, %17 ]
  %.not.i4 = icmp eq ptr %.0.i, null
  br i1 %.not.i4, label %dbg_is_safe.exit.thread, label %dbg_is_safe.exit5

dbg_is_safe.exit5:                                ; preds = %_ZNK7oopDesc5klassEv.exit
  %19 = tail call noundef i64 @SafeFetchN_impl(ptr noundef nonnull %.0.i, i64 noundef -1) #16
  %.not8 = icmp eq i64 %19, -1
  br i1 %.not8, label %dbg_is_safe.exit.thread, label %20

20:                                               ; preds = %dbg_is_safe.exit5
  %21 = tail call noundef zeroext i1 @_ZN7oopDesc6is_oopEPS_b(ptr noundef nonnull %0, i1 noundef zeroext false) #16
  br i1 %21, label %22, label %dbg_is_safe.exit.thread

22:                                               ; preds = %20
  %23 = load i8, ptr @UseCompressedClassPointers, align 1
  %24 = trunc i8 %23 to i1
  br i1 %24, label %25, label %35

25:                                               ; preds = %22
  %26 = load i32, ptr %6, align 8
  %27 = load ptr, ptr @_ZN23CompressedKlassPointers5_baseE, align 8
  %28 = load i32, ptr @_ZN23CompressedKlassPointers6_shiftE, align 4
  %29 = ptrtoint ptr %27 to i64
  %30 = zext i32 %26 to i64
  %31 = zext nneg i32 %28 to i64
  %32 = shl i64 %30, %31
  %33 = add i64 %32, %29
  %34 = inttoptr i64 %33 to ptr
  br label %_ZNK7oopDesc5klassEv.exit7

35:                                               ; preds = %22
  %36 = load ptr, ptr %6, align 8
  br label %_ZNK7oopDesc5klassEv.exit7

_ZNK7oopDesc5klassEv.exit7:                       ; preds = %25, %35
  %.0.i6 = phi ptr [ %34, %25 ], [ %36, %35 ]
  %37 = load ptr, ptr %.0.i6, align 8
  %38 = getelementptr inbounds i8, ptr %37, i64 8
  %39 = load ptr, ptr %38, align 8
  %40 = tail call noundef zeroext i1 %39(ptr noundef nonnull align 8 dereferenceable(196) %.0.i6) #16
  br label %dbg_is_safe.exit.thread

dbg_is_safe.exit.thread:                          ; preds = %_ZNK7oopDesc5klassEv.exit, %1, %_ZNK7oopDesc5klassEv.exit7, %20, %dbg_is_safe.exit5, %dbg_is_safe.exit
  %41 = phi i1 [ false, %20 ], [ false, %dbg_is_safe.exit5 ], [ false, %dbg_is_safe.exit ], [ %40, %_ZNK7oopDesc5klassEv.exit7 ], [ false, %1 ], [ false, %_ZNK7oopDesc5klassEv.exit ]
  ret i1 %41
}